Certificate:
    Data:
        Version: 3 (0x2)
        Serial Number: 4096 (0x1000)
    Signature Algorithm: sha1WithRSAEncryption
        Issuer: C=CN, ST=Demo State, L=Demo City, O=Demo Company, OU=Demo Unit, CN=Demo Root CA/emailAddress=email@example.com
        Validity
            Not Before: Apr 16 08:28:41 2015 GMT
            Not After : Apr 15 08:28:41 2016 GMT
        Subject: C=CN, ST=Demo State, O=Demo Company, OU=Demo Unit, CN=PKILabServer.com/emailAddress=email@example.com
        Subject Public Key Info:
            Public Key Algorithm: rsaEncryption
                Public-Key: (1024 bit)
                Modulus:
                    00:d5:56:58:71:de:91:75:c2:c3:99:50:54:46:6f:
                    95:c0:70:29:ca:ff:19:9e:62:34:72:74:6e:00:2a:
                    fa:89:83:6e:7e:62:3c:3c:37:7f:50:37:64:99:1b:
                    72:dd:7c:da:0f:61:52:85:1b:b9:1b:43:29:36:12:
                    3d:a0:cb:b1:94:c3:08:9d:2a:98:ea:6a:77:8a:f4:
                    33:d1:b7:b6:24:31:d7:16:9a:10:7d:68:74:22:4d:
                    88:59:97:e9:54:da:36:4e:1d:f7:b4:a3:3d:b6:c0:
                    87:44:42:55:85:a1:a9:e5:a6:20:a1:e7:ff:ab:4d:
                    f5:a2:7a:8d:8c:40:2d:be:79
                Exponent: 65537 (0x10001)
        X509v3 extensions:
            X509v3 Basic Constraints: 
                CA:FALSE
            Netscape Comment: 
                OpenSSL Generated Certificate
            X509v3 Subject Key Identifier: 
                12:E4:F8:EE:17:C3:05:31:48:4A:17:A9:B7:47:1D:52:A3:BC:97:BB
            X509v3 Authority Key Identifier: 
                keyid:CE:2D:A8:5A:AF:32:FC:82:DD:CF:52:FD:41:D5:66:B9:16:44:E0:A1

    Signature Algorithm: sha1WithRSAEncryption
         53:1d:9c:4e:d7:1d:6e:02:02:11:5d:3b:51:24:35:c8:80:4c:
         4b:aa:76:c0:6c:4e:97:eb:bf:b8:44:70:1b:58:a4:a6:fa:c3:
         57:8a:02:17:2e:f9:d0:73:23:68:b7:bc:62:f2:00:e7:31:07:
         53:dc:34:6f:ec:6c:43:00:8b:c4:91:3d:32:97:c3:70:e0:88:
         48:50:a2:8c:d1:72:d4:b6:9b:97:29:fa:35:97:76:63:38:38:
         a5:22:69:67:9d:73:f7:6f:53:7f:e1:f8:da:67:e4:39:89:26:
         25:6d:77:ab:10:90:2e:85:22:4a:2b:3b:2d:e2:0f:fa:63:e3:
         c6:dd
-----BEGIN CERTIFICATE-----
MIIDGDCCAoGgAwIBAgICEAAwDQYJKoZIhvcNAQEFBQAwgZoxCzAJBgNVBAYTAkNO
MRMwEQYDVQQIDApEZW1vIFN0YXRlMRIwEAYDVQQHDAlEZW1vIENpdHkxFTATBgNV
BAoMDERlbW8gQ29tcGFueTESMBAGA1UECwwJRGVtbyBVbml0MRUwEwYDVQQDDAxE
ZW1vIFJvb3QgQ0ExIDAeBgkqhkiG9w0BCQEWEWVtYWlsQGV4YW1wbGUuY29tMB4X
DTE1MDQxNjA4Mjg0MVoXDTE2MDQxNTA4Mjg0MVowgYoxCzAJBgNVBAYTAkNOMRMw
EQYDVQQIDApEZW1vIFN0YXRlMRUwEwYDVQQKDAxEZW1vIENvbXBhbnkxEjAQBgNV
BAsMCURlbW8gVW5pdDEZMBcGA1UEAwwQUEtJTGFiU2VydmVyLmNvbTEgMB4GCSqG
SIb3DQEJARYRZW1haWxAZXhhbXBsZS5jb20wgZ8wDQYJKoZIhvcNAQEBBQADgY0A
MIGJAoGBANVWWHHekXXCw5lQVEZvlcBwKcr/GZ5iNHJ0bgAq+omDbn5iPDw3f1A3
ZJkbct182g9hUoUbuRtDKTYSPaDLsZTDCJ0qmOpqd4r0M9G3tiQx1xaaEH1odCJN
iFmX6VTaNk4d97SjPbbAh0RCVYWhqeWmIKHn/6tN9aJ6jYxALb55AgMBAAGjezB5
MAkGA1UdEwQCMAAwLAYJYIZIAYb4QgENBB8WHU9wZW5TU0wgR2VuZXJhdGVkIENl
cnRpZmljYXRlMB0GA1UdDgQWBBQS5PjuF8MFMUhKF6m3Rx1So7yXuzAfBgNVHSME
GDAWgBTOLaharzL8gt3PUv1B1Wa5FkTgoTANBgkqhkiG9w0BAQUFAAOBgQBTHZxO
1x1uAgIRXTtRJDXIgExLqnbAbE6X67+4RHAbWKSm+sNXigIXLvnQcyNot7xi8gDn
MQdT3DRv7GxDAIvEkT0yl8Nw4IhIUKKM0XLUtpuXKfo1l3ZjODilImlnnXP3b1N/
4fjaZ+Q5iSYlbXerEJAuhSJKKzst4g/6Y+PG3Q==
-----END CERTIFICATE-----
